(dp0
S'gs://motrpac-portal-user-malenel/'
p1
(lp2
sS'gs://motrpac-portal-transfer-broad/'
p3
(lp4
sS'gs://motrpac-portal-transfer-bob/'
p5
(lp6
sS'gs://motrpac-portal-user-dhsua/'
p7
(lp8
sS'gs://motrpac-portal-transfer-duke-clin/'
p9
(lp10
sS'gs://motrpac-portal-public/'
p11
(lp12
sS'gs://motrpac-portal-transfer-stanford/'
p13
(lp14
S'gs://motrpac-portal-transfer-stanford/montgomery/:'
p15
aS'gs://motrpac-portal-transfer-stanford/montgomery/'
p16
aS''
p17
aS'gs://motrpac-portal-transfer-stanford/montgomery/rat_pilot/:'
p18
aS'gs://motrpac-portal-transfer-stanford/montgomery/rat_pilot/'
p19
aS'gs://motrpac-portal-transfer-stanford/montgomery/rat_pilot/MSSM_Rat muscle libraries.xlsx'
p20
aS'gs://motrpac-portal-transfer-stanford/montgomery/rat_pilot/README.txt'
p21
aS'gs://motrpac-portal-transfer-stanford/montgomery/rat_pilot/multiqc_report.html'
p22
aS'gs://motrpac-portal-transfer-stanford/montgomery/rat_pilot/qc_and_preprocessing.py'
p23
ag17
aS'gs://motrpac-portal-transfer-stanford/montgomery/rat_pilot/STAR_read_counts/:'
p24
aS'gs://motrpac-portal-transfer-stanford/montgomery/rat_pilot/STAR_read_counts/'
p25
aS'gs://motrpac-portal-transfer-stanford/montgomery/rat_pilot/STAR_read_counts/A_R1_S16_ReadsPerGene.out.tab'
p26
aS'gs://motrpac-portal-transfer-stanford/montgomery/rat_pilot/STAR_read_counts/A_R2_S17_ReadsPerGene.out.tab'
p27
aS'gs://motrpac-portal-transfer-stanford/montgomery/rat_pilot/STAR_read_counts/A_R3_S18_ReadsPerGene.out.tab'
p28
aS'gs://motrpac-portal-transfer-stanford/montgomery/rat_pilot/STAR_read_counts/A_R4_S19_ReadsPerGene.out.tab'
p29
aS'gs://motrpac-portal-transfer-stanford/montgomery/rat_pilot/STAR_read_counts/A_R5_S20_ReadsPerGene.out.tab'
p30
aS'gs://motrpac-portal-transfer-stanford/montgomery/rat_pilot/STAR_read_counts/A_S1_S11_ReadsPerGene.out.tab'
p31
aS'gs://motrpac-portal-transfer-stanford/montgomery/rat_pilot/STAR_read_counts/A_S2_S12_ReadsPerGene.out.tab'
p32
aS'gs://motrpac-portal-transfer-stanford/montgomery/rat_pilot/STAR_read_counts/A_S3_S13_ReadsPerGene.out.tab'
p33
aS'gs://motrpac-portal-transfer-stanford/montgomery/rat_pilot/STAR_read_counts/A_S4_S14_ReadsPerGene.out.tab'
p34
aS'gs://motrpac-portal-transfer-stanford/montgomery/rat_pilot/STAR_read_counts/A_S5_S15_ReadsPerGene.out.tab'
p35
aS'gs://motrpac-portal-transfer-stanford/montgomery/rat_pilot/STAR_read_counts/M_R1_S6_ReadsPerGene.out.tab'
p36
aS'gs://motrpac-portal-transfer-stanford/montgomery/rat_pilot/STAR_read_counts/M_R2_S7_ReadsPerGene.out.tab'
p37
aS'gs://motrpac-portal-transfer-stanford/montgomery/rat_pilot/STAR_read_counts/M_R3_S8_ReadsPerGene.out.tab'
p38
aS'gs://motrpac-portal-transfer-stanford/montgomery/rat_pilot/STAR_read_counts/M_R4_S9_ReadsPerGene.out.tab'
p39
aS'gs://motrpac-portal-transfer-stanford/montgomery/rat_pilot/STAR_read_counts/M_R5_S10_ReadsPerGene.out.tab'
p40
aS'gs://motrpac-portal-transfer-stanford/montgomery/rat_pilot/STAR_read_counts/M_S1_S1_ReadsPerGene.out.tab'
p41
aS'gs://motrpac-portal-transfer-stanford/montgomery/rat_pilot/STAR_read_counts/M_S2_S2_ReadsPerGene.out.tab'
p42
aS'gs://motrpac-portal-transfer-stanford/montgomery/rat_pilot/STAR_read_counts/M_S3_S3_ReadsPerGene.out.tab'
p43
aS'gs://motrpac-portal-transfer-stanford/montgomery/rat_pilot/STAR_read_counts/M_S4_S4_ReadsPerGene.out.tab'
p44
aS'gs://motrpac-portal-transfer-stanford/montgomery/rat_pilot/STAR_read_counts/M_S5_S5_ReadsPerGene.out.tab'
p45
aS'gs://motrpac-portal-transfer-stanford/montgomery/rat_pilot/STAR_read_counts/Undetermined_S0_ReadsPerGene.out.tab'
p46
ag17
aS'gs://motrpac-portal-transfer-stanford/montgomery/rat_pilot/bam/:'
p47
aS'gs://motrpac-portal-transfer-stanford/montgomery/rat_pilot/bam/'
p48
aS'gs://motrpac-portal-transfer-stanford/montgomery/rat_pilot/bam/A_R1_S16_Aligned.sortedByCoord.out.bam'
p49
aS'gs://motrpac-portal-transfer-stanford/montgomery/rat_pilot/bam/A_R2_S17_Aligned.sortedByCoord.out.bam'
p50
aS'gs://motrpac-portal-transfer-stanford/montgomery/rat_pilot/bam/A_R3_S18_Aligned.sortedByCoord.out.bam'
p51
aS'gs://motrpac-portal-transfer-stanford/montgomery/rat_pilot/bam/A_R4_S19_Aligned.sortedByCoord.out.bam'
p52
aS'gs://motrpac-portal-transfer-stanford/montgomery/rat_pilot/bam/A_R5_S20_Aligned.sortedByCoord.out.bam'
p53
aS'gs://motrpac-portal-transfer-stanford/montgomery/rat_pilot/bam/A_S1_S11_Aligned.sortedByCoord.out.bam'
p54
aS'gs://motrpac-portal-transfer-stanford/montgomery/rat_pilot/bam/A_S2_S12_Aligned.sortedByCoord.out.bam'
p55
aS'gs://motrpac-portal-transfer-stanford/montgomery/rat_pilot/bam/A_S3_S13_Aligned.sortedByCoord.out.bam'
p56
aS'gs://motrpac-portal-transfer-stanford/montgomery/rat_pilot/bam/A_S4_S14_Aligned.sortedByCoord.out.bam'
p57
aS'gs://motrpac-portal-transfer-stanford/montgomery/rat_pilot/bam/A_S5_S15_Aligned.sortedByCoord.out.bam'
p58
aS'gs://motrpac-portal-transfer-stanford/montgomery/rat_pilot/bam/M_R1_S6_Aligned.sortedByCoord.out.bam'
p59
aS'gs://motrpac-portal-transfer-stanford/montgomery/rat_pilot/bam/M_R2_S7_Aligned.sortedByCoord.out.bam'
p60
aS'gs://motrpac-portal-transfer-stanford/montgomery/rat_pilot/bam/M_R3_S8_Aligned.sortedByCoord.out.bam'
p61
aS'gs://motrpac-portal-transfer-stanford/montgomery/rat_pilot/bam/M_R4_S9_Aligned.sortedByCoord.out.bam'
p62
aS'gs://motrpac-portal-transfer-stanford/montgomery/rat_pilot/bam/M_R5_S10_Aligned.sortedByCoord.out.bam'
p63
aS'gs://motrpac-portal-transfer-stanford/montgomery/rat_pilot/bam/M_S1_S1_Aligned.sortedByCoord.out.bam'
p64
aS'gs://motrpac-portal-transfer-stanford/montgomery/rat_pilot/bam/M_S2_S2_Aligned.sortedByCoord.out.bam'
p65
aS'gs://motrpac-portal-transfer-stanford/montgomery/rat_pilot/bam/M_S3_S3_Aligned.sortedByCoord.out.bam'
p66
aS'gs://motrpac-portal-transfer-stanford/montgomery/rat_pilot/bam/M_S4_S4_Aligned.sortedByCoord.out.bam'
p67
aS'gs://motrpac-portal-transfer-stanford/montgomery/rat_pilot/bam/M_S5_S5_Aligned.sortedByCoord.out.bam'
p68
ag17
aS'gs://motrpac-portal-transfer-stanford/montgomery/rat_pilot/fastq/:'
p69
aS'gs://motrpac-portal-transfer-stanford/montgomery/rat_pilot/fastq/'
p70
asS'gs://motrpac-portal-transfer/'
p71
(lp72
sS'gs://motrpac-portal-user-jchristl/'
p73
(lp74
sS'gs://motrpac-portal-main/'
p75
(lp76
sS'gs://motrpac-portal-user-cherry/'
p77
(lp78
sS'gs://motrpac-portal-transfer-michigan/'
p79
(lp80
sS'gs://motrpac-portal-transfer-dmaqc/'
p81
(lp82
sS'gs://motrpac-portal-transfer-pennington/'
p83
(lp84
sS'gs://motrpac-portal-transfer-mayo/'
p85
(lp86
sS'gs://motrpac-portal-user-wheelerm/'
p87
(lp88
sS'gs://motrpac-portal-transfer-utexas/'
p89
(lp90
sS'gs://motrpac-portal-transfer-pnnl/'
p91
(lp92
S'gs://motrpac-portal-transfer-pnnl/2017November_MoTrPAC_Pilot/:'
p93
aS'gs://motrpac-portal-transfer-pnnl/2017November_MoTrPAC_Pilot/PNNL_MoTrPAC_Pilot_TMT_W_S1_01_12Oct17_Elm_AQ-17-09-02.raw'
p94
aS'gs://motrpac-portal-transfer-pnnl/2017November_MoTrPAC_Pilot/PNNL_MoTrPAC_Pilot_TMT_W_S1_02_12Oct17_Elm_AQ-17-09-02.raw'
p95
aS'gs://motrpac-portal-transfer-pnnl/2017November_MoTrPAC_Pilot/PNNL_MoTrPAC_Pilot_TMT_W_S1_03_12Oct17_Elm_AQ-17-09-02.raw'
p96
ag17
aS'gs://motrpac-portal-transfer-pnnl/test/:'
p97
aS'gs://motrpac-portal-transfer-pnnl/test/TestFile1.txt'
p98
aS'gs://motrpac-portal-transfer-pnnl/test/TestFile2.txt'
p99
aS'gs://motrpac-portal-transfer-pnnl/test/TestFile3.txt'
p100
asS'gs://motrpac-portal-user-dwaggott/'
p101
(lp102
sS'gs://motrpac-portal-transfer-sinai/'
p103
(lp104
S'gs://motrpac-portal-transfer-sinai/my_first_db.sqlite'
p105
aS'gs://motrpac-portal-transfer-sinai/data_for_stephen/:'
p106
ag17
aS'gs://motrpac-portal-transfer-sinai/data_for_stephen/171003_D00448_0118_BCBN1YANXX/:'
p107
aS'gs://motrpac-portal-transfer-sinai/data_for_stephen/171003_D00448_0118_BCBN1YANXX/FL_10_S10_L002_R1_001.fastq.gz'
p108
aS'gs://motrpac-portal-transfer-sinai/data_for_stephen/171003_D00448_0118_BCBN1YANXX/FL_10_S10_L002_R2_001.fastq.gz'
p109
aS'gs://motrpac-portal-transfer-sinai/data_for_stephen/171003_D00448_0118_BCBN1YANXX/FL_11_S11_L002_R1_001.fastq.gz'
p110
aS'gs://motrpac-portal-transfer-sinai/data_for_stephen/171003_D00448_0118_BCBN1YANXX/FL_11_S11_L002_R2_001.fastq.gz'
p111
aS'gs://motrpac-portal-transfer-sinai/data_for_stephen/171003_D00448_0118_BCBN1YANXX/FL_12_S12_L002_R1_001.fastq.gz'
p112
aS'gs://motrpac-portal-transfer-sinai/data_for_stephen/171003_D00448_0118_BCBN1YANXX/FL_12_S12_L002_R2_001.fastq.gz'
p113
aS'gs://motrpac-portal-transfer-sinai/data_for_stephen/171003_D00448_0118_BCBN1YANXX/FL_13_S13_L002_R1_001.fastq.gz'
p114
aS'gs://motrpac-portal-transfer-sinai/data_for_stephen/171003_D00448_0118_BCBN1YANXX/FL_13_S13_L002_R2_001.fastq.gz'
p115
aS'gs://motrpac-portal-transfer-sinai/data_for_stephen/171003_D00448_0118_BCBN1YANXX/FL_14_S14_L002_R1_001.fastq.gz'
p116
aS'gs://motrpac-portal-transfer-sinai/data_for_stephen/171003_D00448_0118_BCBN1YANXX/FL_14_S14_L002_R2_001.fastq.gz'
p117
aS'gs://motrpac-portal-transfer-sinai/data_for_stephen/171003_D00448_0118_BCBN1YANXX/FL_15_S15_L003_R1_001.fastq.gz'
p118
aS'gs://motrpac-portal-transfer-sinai/data_for_stephen/171003_D00448_0118_BCBN1YANXX/FL_15_S15_L003_R2_001.fastq.gz'
p119
aS'gs://motrpac-portal-transfer-sinai/data_for_stephen/171003_D00448_0118_BCBN1YANXX/FL_16_S16_L003_R1_001.fastq.gz'
p120
aS'gs://motrpac-portal-transfer-sinai/data_for_stephen/171003_D00448_0118_BCBN1YANXX/FL_16_S16_L003_R2_001.fastq.gz'
p121
aS'gs://motrpac-portal-transfer-sinai/data_for_stephen/171003_D00448_0118_BCBN1YANXX/FL_17_S17_L003_R1_001.fastq.gz'
p122
aS'gs://motrpac-portal-transfer-sinai/data_for_stephen/171003_D00448_0118_BCBN1YANXX/FL_17_S17_L003_R2_001.fastq.gz'
p123
aS'gs://motrpac-portal-transfer-sinai/data_for_stephen/171003_D00448_0118_BCBN1YANXX/FL_18_S18_L003_R1_001.fastq.gz'
p124
aS'gs://motrpac-portal-transfer-sinai/data_for_stephen/171003_D00448_0118_BCBN1YANXX/FL_18_S18_L003_R2_001.fastq.gz'
p125
aS'gs://motrpac-portal-transfer-sinai/data_for_stephen/171003_D00448_0118_BCBN1YANXX/FL_19_S19_L003_R1_001.fastq.gz'
p126
aS'gs://motrpac-portal-transfer-sinai/data_for_stephen/171003_D00448_0118_BCBN1YANXX/FL_19_S19_L003_R2_001.fastq.gz'
p127
aS'gs://motrpac-portal-transfer-sinai/data_for_stephen/171003_D00448_0118_BCBN1YANXX/FL_1_S1_L001_R1_001.fastq.gz'
p128
aS'gs://motrpac-portal-transfer-sinai/data_for_stephen/171003_D00448_0118_BCBN1YANXX/FL_1_S1_L001_R2_001.fastq.gz'
p129
aS'gs://motrpac-portal-transfer-sinai/data_for_stephen/171003_D00448_0118_BCBN1YANXX/FL_20_S20_L003_R1_001.fastq.gz'
p130
aS'gs://motrpac-portal-transfer-sinai/data_for_stephen/171003_D00448_0118_BCBN1YANXX/FL_20_S20_L003_R2_001.fastq.gz'
p131
aS'gs://motrpac-portal-transfer-sinai/data_for_stephen/171003_D00448_0118_BCBN1YANXX/FL_21_S21_L003_R1_001.fastq.gz'
p132
aS'gs://motrpac-portal-transfer-sinai/data_for_stephen/171003_D00448_0118_BCBN1YANXX/FL_21_S21_L003_R2_001.fastq.gz'
p133
aS'gs://motrpac-portal-transfer-sinai/data_for_stephen/171003_D00448_0118_BCBN1YANXX/FL_22_S22_L004_R1_001.fastq.gz'
p134
aS'gs://motrpac-portal-transfer-sinai/data_for_stephen/171003_D00448_0118_BCBN1YANXX/FL_22_S22_L004_R2_001.fastq.gz'
p135
aS'gs://motrpac-portal-transfer-sinai/data_for_stephen/171003_D00448_0118_BCBN1YANXX/FL_23_S23_L004_R1_001.fastq.gz'
p136
aS'gs://motrpac-portal-transfer-sinai/data_for_stephen/171003_D00448_0118_BCBN1YANXX/FL_23_S23_L004_R2_001.fastq.gz'
p137
aS'gs://motrpac-portal-transfer-sinai/data_for_stephen/171003_D00448_0118_BCBN1YANXX/FL_24_S24_L004_R1_001.fastq.gz'
p138
aS'gs://motrpac-portal-transfer-sinai/data_for_stephen/171003_D00448_0118_BCBN1YANXX/FL_24_S24_L004_R2_001.fastq.gz'
p139
aS'gs://motrpac-portal-transfer-sinai/data_for_stephen/171003_D00448_0118_BCBN1YANXX/FL_25_S25_L004_R1_001.fastq.gz'
p140
aS'gs://motrpac-portal-transfer-sinai/data_for_stephen/171003_D00448_0118_BCBN1YANXX/FL_25_S25_L004_R2_001.fastq.gz'
p141
aS'gs://motrpac-portal-transfer-sinai/data_for_stephen/171003_D00448_0118_BCBN1YANXX/FL_26_S26_L004_R1_001.fastq.gz'
p142
aS'gs://motrpac-portal-transfer-sinai/data_for_stephen/171003_D00448_0118_BCBN1YANXX/FL_26_S26_L004_R2_001.fastq.gz'
p143
aS'gs://motrpac-portal-transfer-sinai/data_for_stephen/171003_D00448_0118_BCBN1YANXX/FL_27_S27_L004_R1_001.fastq.gz'
p144
aS'gs://motrpac-portal-transfer-sinai/data_for_stephen/171003_D00448_0118_BCBN1YANXX/FL_27_S27_L004_R2_001.fastq.gz'
p145
aS'gs://motrpac-portal-transfer-sinai/data_for_stephen/171003_D00448_0118_BCBN1YANXX/FL_28_S28_L004_R1_001.fastq.gz'
p146
aS'gs://motrpac-portal-transfer-sinai/data_for_stephen/171003_D00448_0118_BCBN1YANXX/FL_28_S28_L004_R2_001.fastq.gz'
p147
aS'gs://motrpac-portal-transfer-sinai/data_for_stephen/171003_D00448_0118_BCBN1YANXX/FL_29_S29_L005_R1_001.fastq.gz'
p148
aS'gs://motrpac-portal-transfer-sinai/data_for_stephen/171003_D00448_0118_BCBN1YANXX/FL_29_S29_L005_R2_001.fastq.gz'
p149
aS'gs://motrpac-portal-transfer-sinai/data_for_stephen/171003_D00448_0118_BCBN1YANXX/FL_2_S2_L001_R1_001.fastq.gz'
p150
aS'gs://motrpac-portal-transfer-sinai/data_for_stephen/171003_D00448_0118_BCBN1YANXX/FL_2_S2_L001_R2_001.fastq.gz'
p151
aS'gs://motrpac-portal-transfer-sinai/data_for_stephen/171003_D00448_0118_BCBN1YANXX/FL_30_S30_L005_R1_001.fastq.gz'
p152
aS'gs://motrpac-portal-transfer-sinai/data_for_stephen/171003_D00448_0118_BCBN1YANXX/FL_30_S30_L005_R2_001.fastq.gz'
p153
aS'gs://motrpac-portal-transfer-sinai/data_for_stephen/171003_D00448_0118_BCBN1YANXX/FL_3_S3_L001_R1_001.fastq.gz'
p154
aS'gs://motrpac-portal-transfer-sinai/data_for_stephen/171003_D00448_0118_BCBN1YANXX/FL_3_S3_L001_R2_001.fastq.gz'
p155
aS'gs://motrpac-portal-transfer-sinai/data_for_stephen/171003_D00448_0118_BCBN1YANXX/FL_4_S4_L001_R1_001.fastq.gz'
p156
aS'gs://motrpac-portal-transfer-sinai/data_for_stephen/171003_D00448_0118_BCBN1YANXX/FL_4_S4_L001_R2_001.fastq.gz'
p157
aS'gs://motrpac-portal-transfer-sinai/data_for_stephen/171003_D00448_0118_BCBN1YANXX/FL_5_S5_L001_R1_001.fastq.gz'
p158
aS'gs://motrpac-portal-transfer-sinai/data_for_stephen/171003_D00448_0118_BCBN1YANXX/FL_5_S5_L001_R2_001.fastq.gz'
p159
aS'gs://motrpac-portal-transfer-sinai/data_for_stephen/171003_D00448_0118_BCBN1YANXX/FL_6_S6_L001_R1_001.fastq.gz'
p160
aS'gs://motrpac-portal-transfer-sinai/data_for_stephen/171003_D00448_0118_BCBN1YANXX/FL_6_S6_L001_R2_001.fastq.gz'
p161
aS'gs://motrpac-portal-transfer-sinai/data_for_stephen/171003_D00448_0118_BCBN1YANXX/FL_7_S7_L001_R1_001.fastq.gz'
p162
aS'gs://motrpac-portal-transfer-sinai/data_for_stephen/171003_D00448_0118_BCBN1YANXX/FL_7_S7_L001_R2_001.fastq.gz'
p163
aS'gs://motrpac-portal-transfer-sinai/data_for_stephen/171003_D00448_0118_BCBN1YANXX/FL_8_S8_L002_R1_001.fastq.gz'
p164
aS'gs://motrpac-portal-transfer-sinai/data_for_stephen/171003_D00448_0118_BCBN1YANXX/FL_8_S8_L002_R2_001.fastq.gz'
p165
aS'gs://motrpac-portal-transfer-sinai/data_for_stephen/171003_D00448_0118_BCBN1YANXX/FL_9_S9_L002_R1_001.fastq.gz'
p166
aS'gs://motrpac-portal-transfer-sinai/data_for_stephen/171003_D00448_0118_BCBN1YANXX/FL_9_S9_L002_R2_001.fastq.gz'
p167
aS'gs://motrpac-portal-transfer-sinai/data_for_stephen/171003_D00448_0118_BCBN1YANXX/LA_A10_S40_L006_R1_001.fastq.gz'
p168
aS'gs://motrpac-portal-transfer-sinai/data_for_stephen/171003_D00448_0118_BCBN1YANXX/LA_A10_S40_L006_R2_001.fastq.gz'
p169
aS'gs://motrpac-portal-transfer-sinai/data_for_stephen/171003_D00448_0118_BCBN1YANXX/LA_A11_S41_L006_R1_001.fastq.gz'
p170
aS'gs://motrpac-portal-transfer-sinai/data_for_stephen/171003_D00448_0118_BCBN1YANXX/LA_A11_S41_L006_R2_001.fastq.gz'
p171
aS'gs://motrpac-portal-transfer-sinai/data_for_stephen/171003_D00448_0118_BCBN1YANXX/LA_A12_S42_L006_R1_001.fastq.gz'
p172
aS'gs://motrpac-portal-transfer-sinai/data_for_stephen/171003_D00448_0118_BCBN1YANXX/LA_A12_S42_L006_R2_001.fastq.gz'
p173
aS'gs://motrpac-portal-transfer-sinai/data_for_stephen/171003_D00448_0118_BCBN1YANXX/LA_A13_S43_L007_R1_001.fastq.gz'
p174
aS'gs://motrpac-portal-transfer-sinai/data_for_stephen/171003_D00448_0118_BCBN1YANXX/LA_A13_S43_L007_R2_001.fastq.gz'
p175
aS'gs://motrpac-portal-transfer-sinai/data_for_stephen/171003_D00448_0118_BCBN1YANXX/LA_A14_S44_L007_R1_001.fastq.gz'
p176
aS'gs://motrpac-portal-transfer-sinai/data_for_stephen/171003_D00448_0118_BCBN1YANXX/LA_A14_S44_L007_R2_001.fastq.gz'
p177
aS'gs://motrpac-portal-transfer-sinai/data_for_stephen/171003_D00448_0118_BCBN1YANXX/LA_A15_S45_L007_R1_001.fastq.gz'
p178
aS'gs://motrpac-portal-transfer-sinai/data_for_stephen/171003_D00448_0118_BCBN1YANXX/LA_A15_S45_L007_R2_001.fastq.gz'
p179
aS'gs://motrpac-portal-transfer-sinai/data_for_stephen/171003_D00448_0118_BCBN1YANXX/LA_A16_S46_L007_R1_001.fastq.gz'
p180
aS'gs://motrpac-portal-transfer-sinai/data_for_stephen/171003_D00448_0118_BCBN1YANXX/LA_A16_S46_L007_R2_001.fastq.gz'
p181
aS'gs://motrpac-portal-transfer-sinai/data_for_stephen/171003_D00448_0118_BCBN1YANXX/LA_A17_S47_L007_R1_001.fastq.gz'
p182
aS'gs://motrpac-portal-transfer-sinai/data_for_stephen/171003_D00448_0118_BCBN1YANXX/LA_A17_S47_L007_R2_001.fastq.gz'
p183
aS'gs://motrpac-portal-transfer-sinai/data_for_stephen/171003_D00448_0118_BCBN1YANXX/LA_A18_S48_L007_R1_001.fastq.gz'
p184
aS'gs://motrpac-portal-transfer-sinai/data_for_stephen/171003_D00448_0118_BCBN1YANXX/LA_A18_S48_L007_R2_001.fastq.gz'
p185
aS'gs://motrpac-portal-transfer-sinai/data_for_stephen/171003_D00448_0118_BCBN1YANXX/LA_A19_S49_L008_R1_001.fastq.gz'
p186
aS'gs://motrpac-portal-transfer-sinai/data_for_stephen/171003_D00448_0118_BCBN1YANXX/LA_A19_S49_L008_R2_001.fastq.gz'
p187
aS'gs://motrpac-portal-transfer-sinai/data_for_stephen/171003_D00448_0118_BCBN1YANXX/LA_A1_S31_L005_R1_001.fastq.gz'
p188
aS'gs://motrpac-portal-transfer-sinai/data_for_stephen/171003_D00448_0118_BCBN1YANXX/LA_A1_S31_L005_R2_001.fastq.gz'
p189
aS'gs://motrpac-portal-transfer-sinai/data_for_stephen/171003_D00448_0118_BCBN1YANXX/LA_A20_S50_L008_R1_001.fastq.gz'
p190
aS'gs://motrpac-portal-transfer-sinai/data_for_stephen/171003_D00448_0118_BCBN1YANXX/LA_A20_S50_L008_R2_001.fastq.gz'
p191
aS'gs://motrpac-portal-transfer-sinai/data_for_stephen/171003_D00448_0118_BCBN1YANXX/LA_A21_S51_L008_R1_001.fastq.gz'
p192
aS'gs://motrpac-portal-transfer-sinai/data_for_stephen/171003_D00448_0118_BCBN1YANXX/LA_A21_S51_L008_R2_001.fastq.gz'
p193
aS'gs://motrpac-portal-transfer-sinai/data_for_stephen/171003_D00448_0118_BCBN1YANXX/LA_A22_S52_L008_R1_001.fastq.gz'
p194
aS'gs://motrpac-portal-transfer-sinai/data_for_stephen/171003_D00448_0118_BCBN1YANXX/LA_A22_S52_L008_R2_001.fastq.gz'
p195
aS'gs://motrpac-portal-transfer-sinai/data_for_stephen/171003_D00448_0118_BCBN1YANXX/LA_A23_S53_L008_R1_001.fastq.gz'
p196
aS'gs://motrpac-portal-transfer-sinai/data_for_stephen/171003_D00448_0118_BCBN1YANXX/LA_A23_S53_L008_R2_001.fastq.gz'
p197
aS'gs://motrpac-portal-transfer-sinai/data_for_stephen/171003_D00448_0118_BCBN1YANXX/LA_A24_S54_L008_R1_001.fastq.gz'
p198
aS'gs://motrpac-portal-transfer-sinai/data_for_stephen/171003_D00448_0118_BCBN1YANXX/LA_A24_S54_L008_R2_001.fastq.gz'
p199
aS'gs://motrpac-portal-transfer-sinai/data_for_stephen/171003_D00448_0118_BCBN1YANXX/LA_A2_S32_L005_R1_001.fastq.gz'
p200
aS'gs://motrpac-portal-transfer-sinai/data_for_stephen/171003_D00448_0118_BCBN1YANXX/LA_A2_S32_L005_R2_001.fastq.gz'
p201
aS'gs://motrpac-portal-transfer-sinai/data_for_stephen/171003_D00448_0118_BCBN1YANXX/LA_A3_S33_L005_R1_001.fastq.gz'
p202
aS'gs://motrpac-portal-transfer-sinai/data_for_stephen/171003_D00448_0118_BCBN1YANXX/LA_A3_S33_L005_R2_001.fastq.gz'
p203
aS'gs://motrpac-portal-transfer-sinai/data_for_stephen/171003_D00448_0118_BCBN1YANXX/LA_A4_S34_L005_R1_001.fastq.gz'
p204
aS'gs://motrpac-portal-transfer-sinai/data_for_stephen/171003_D00448_0118_BCBN1YANXX/LA_A4_S34_L005_R2_001.fastq.gz'
p205
aS'gs://motrpac-portal-transfer-sinai/data_for_stephen/171003_D00448_0118_BCBN1YANXX/LA_A5_S35_L005_R1_001.fastq.gz'
p206
aS'gs://motrpac-portal-transfer-sinai/data_for_stephen/171003_D00448_0118_BCBN1YANXX/LA_A5_S35_L005_R2_001.fastq.gz'
p207
aS'gs://motrpac-portal-transfer-sinai/data_for_stephen/171003_D00448_0118_BCBN1YANXX/LA_A6_S36_L006_R1_001.fastq.gz'
p208
aS'gs://motrpac-portal-transfer-sinai/data_for_stephen/171003_D00448_0118_BCBN1YANXX/LA_A6_S36_L006_R2_001.fastq.gz'
p209
aS'gs://motrpac-portal-transfer-sinai/data_for_stephen/171003_D00448_0118_BCBN1YANXX/LA_A7_S37_L006_R1_001.fastq.gz'
p210
aS'gs://motrpac-portal-transfer-sinai/data_for_stephen/171003_D00448_0118_BCBN1YANXX/LA_A7_S37_L006_R2_001.fastq.gz'
p211
aS'gs://motrpac-portal-transfer-sinai/data_for_stephen/171003_D00448_0118_BCBN1YANXX/LA_A8_S38_L006_R1_001.fastq.gz'
p212
aS'gs://motrpac-portal-transfer-sinai/data_for_stephen/171003_D00448_0118_BCBN1YANXX/LA_A8_S38_L006_R2_001.fastq.gz'
p213
aS'gs://motrpac-portal-transfer-sinai/data_for_stephen/171003_D00448_0118_BCBN1YANXX/LA_A9_S39_L006_R1_001.fastq.gz'
p214
aS'gs://motrpac-portal-transfer-sinai/data_for_stephen/171003_D00448_0118_BCBN1YANXX/LA_A9_S39_L006_R2_001.fastq.gz'
p215
ag17
aS'gs://motrpac-portal-transfer-sinai/data_for_stephen/Project_SEA_12788_B01_NAN_Lane.2017-08-28/:'
p216
ag17
aS'gs://motrpac-portal-transfer-sinai/data_for_stephen/Project_SEA_12788_B01_NAN_Lane.2017-08-28/Sample_FL-M-1a-4a-ACTCCT/:'
p217
ag17
aS'gs://motrpac-portal-transfer-sinai/data_for_stephen/Project_SEA_12788_B01_NAN_Lane.2017-08-28/Sample_FL-M-1a-4a-ACTCCT/fastq/:'
p218
aS'gs://motrpac-portal-transfer-sinai/data_for_stephen/Project_SEA_12788_B01_NAN_Lane.2017-08-28/Sample_FL-M-1a-4a-ACTCCT/fastq/FL-M-1a-4a-ACTCCT_ACTCCT-_ACB0DPANXX_L006_001.R1.fastq.gz'
p219
aS'gs://motrpac-portal-transfer-sinai/data_for_stephen/Project_SEA_12788_B01_NAN_Lane.2017-08-28/Sample_FL-M-1a-4a-ACTCCT/fastq/FL-M-1a-4a-ACTCCT_ACTCCT-_ACB0DPANXX_L006_001.R2.fastq.gz'
p220
ag17
aS'gs://motrpac-portal-transfer-sinai/data_for_stephen/Project_SEA_12788_B01_NAN_Lane.2017-08-28/Sample_FL-M-1a-4a-ACTCCT/fastq/checksum/:'
p221
aS'gs://motrpac-portal-transfer-sinai/data_for_stephen/Project_SEA_12788_B01_NAN_Lane.2017-08-28/Sample_FL-M-1a-4a-ACTCCT/fastq/checksum/FL-M-1a-4a-ACTCCT_ACTCCT-_ACB0DPANXX_L006_001.R1.fastq.gz.md5'
p222
aS'gs://motrpac-portal-transfer-sinai/data_for_stephen/Project_SEA_12788_B01_NAN_Lane.2017-08-28/Sample_FL-M-1a-4a-ACTCCT/fastq/checksum/FL-M-1a-4a-ACTCCT_ACTCCT-_ACB0DPANXX_L006_001.R2.fastq.gz.md5'
p223
ag17
aS'gs://motrpac-portal-transfer-sinai/data_for_stephen/Project_SEA_12788_B01_NAN_Lane.2017-08-28/Sample_FL-M-1a-4a-CTCCTA/:'
p224
ag17
aS'gs://motrpac-portal-transfer-sinai/data_for_stephen/Project_SEA_12788_B01_NAN_Lane.2017-08-28/Sample_FL-M-1a-4a-CTCCTA/fastq/:'
p225
aS'gs://motrpac-portal-transfer-sinai/data_for_stephen/Project_SEA_12788_B01_NAN_Lane.2017-08-28/Sample_FL-M-1a-4a-CTCCTA/fastq/FL-M-1a-4a-CTCCTA_CTCCTA-_ACB0DPANXX_L006_001.R1.fastq.gz'
p226
aS'gs://motrpac-portal-transfer-sinai/data_for_stephen/Project_SEA_12788_B01_NAN_Lane.2017-08-28/Sample_FL-M-1a-4a-CTCCTA/fastq/FL-M-1a-4a-CTCCTA_CTCCTA-_ACB0DPANXX_L006_001.R2.fastq.gz'
p227
ag17
aS'gs://motrpac-portal-transfer-sinai/data_for_stephen/Project_SEA_12788_B01_NAN_Lane.2017-08-28/Sample_FL-M-1a-4a-CTCCTA/fastq/checksum/:'
p228
aS'gs://motrpac-portal-transfer-sinai/data_for_stephen/Project_SEA_12788_B01_NAN_Lane.2017-08-28/Sample_FL-M-1a-4a-CTCCTA/fastq/checksum/FL-M-1a-4a-CTCCTA_CTCCTA-_ACB0DPANXX_L006_001.R1.fastq.gz.md5'
p229
aS'gs://motrpac-portal-transfer-sinai/data_for_stephen/Project_SEA_12788_B01_NAN_Lane.2017-08-28/Sample_FL-M-1a-4a-CTCCTA/fastq/checksum/FL-M-1a-4a-CTCCTA_CTCCTA-_ACB0DPANXX_L006_001.R2.fastq.gz.md5'
p230
ag17
aS'gs://motrpac-portal-transfer-sinai/data_for_stephen/Project_SEA_12788_B01_NAN_Lane.2017-08-28/Sample_FL-M-1a-4a-GACTAC/:'
p231
ag17
aS'gs://motrpac-portal-transfer-sinai/data_for_stephen/Project_SEA_12788_B01_NAN_Lane.2017-08-28/Sample_FL-M-1a-4a-GACTAC/fastq/:'
p232
aS'gs://motrpac-portal-transfer-sinai/data_for_stephen/Project_SEA_12788_B01_NAN_Lane.2017-08-28/Sample_FL-M-1a-4a-GACTAC/fastq/FL-M-1a-4a-GACTAC_GACTAC-_ACB0DPANXX_L006_001.R1.fastq.gz'
p233
aS'gs://motrpac-portal-transfer-sinai/data_for_stephen/Project_SEA_12788_B01_NAN_Lane.2017-08-28/Sample_FL-M-1a-4a-GACTAC/fastq/FL-M-1a-4a-GACTAC_GACTAC-_ACB0DPANXX_L006_001.R2.fastq.gz'
p234
ag17
aS'gs://motrpac-portal-transfer-sinai/data_for_stephen/Project_SEA_12788_B01_NAN_Lane.2017-08-28/Sample_FL-M-1a-4a-GACTAC/fastq/checksum/:'
p235
aS'gs://motrpac-portal-transfer-sinai/data_for_stephen/Project_SEA_12788_B01_NAN_Lane.2017-08-28/Sample_FL-M-1a-4a-GACTAC/fastq/checksum/FL-M-1a-4a-GACTAC_GACTAC-_ACB0DPANXX_L006_001.R1.fastq.gz.md5'
p236
aS'gs://motrpac-portal-transfer-sinai/data_for_stephen/Project_SEA_12788_B01_NAN_Lane.2017-08-28/Sample_FL-M-1a-4a-GACTAC/fastq/checksum/FL-M-1a-4a-GACTAC_GACTAC-_ACB0DPANXX_L006_001.R2.fastq.gz.md5'
p237
ag17
aS'gs://motrpac-portal-transfer-sinai/data_for_stephen/Project_SEA_12788_B01_NAN_Lane.2017-08-28/Sample_FL-M-1a-4a-TCTTCG/:'
p238
ag17
aS'gs://motrpac-portal-transfer-sinai/data_for_stephen/Project_SEA_12788_B01_NAN_Lane.2017-08-28/Sample_FL-M-1a-4a-TCTTCG/fastq/:'
p239
aS'gs://motrpac-portal-transfer-sinai/data_for_stephen/Project_SEA_12788_B01_NAN_Lane.2017-08-28/Sample_FL-M-1a-4a-TCTTCG/fastq/FL-M-1a-4a-TCTTCG_TCTTCG-_ACB0DPANXX_L006_001.R1.fastq.gz'
p240
aS'gs://motrpac-portal-transfer-sinai/data_for_stephen/Project_SEA_12788_B01_NAN_Lane.2017-08-28/Sample_FL-M-1a-4a-TCTTCG/fastq/FL-M-1a-4a-TCTTCG_TCTTCG-_ACB0DPANXX_L006_001.R2.fastq.gz'
p241
ag17
aS'gs://motrpac-portal-transfer-sinai/data_for_stephen/Project_SEA_12788_B01_NAN_Lane.2017-08-28/Sample_FL-M-1a-4a-TCTTCG/fastq/checksum/:'
p242
aS'gs://motrpac-portal-transfer-sinai/data_for_stephen/Project_SEA_12788_B01_NAN_Lane.2017-08-28/Sample_FL-M-1a-4a-TCTTCG/fastq/checksum/FL-M-1a-4a-TCTTCG_TCTTCG-_ACB0DPANXX_L006_001.R1.fastq.gz.md5'
p243
aS'gs://motrpac-portal-transfer-sinai/data_for_stephen/Project_SEA_12788_B01_NAN_Lane.2017-08-28/Sample_FL-M-1a-4a-TCTTCG/fastq/checksum/FL-M-1a-4a-TCTTCG_TCTTCG-_ACB0DPANXX_L006_001.R2.fastq.gz.md5'
p244
ag17
aS'gs://motrpac-portal-transfer-sinai/data_for_stephen/Sample_FL-M-1-4-ACAGTG/:'
p245
ag17
aS'gs://motrpac-portal-transfer-sinai/data_for_stephen/Sample_FL-M-1-4-ACAGTG/fastq/:'
p246
aS'gs://motrpac-portal-transfer-sinai/data_for_stephen/Sample_FL-M-1-4-ACAGTG/fastq/FL-M-1-4-ACAGTG_ACAGTG_BCB03KANXX_L002_001.R1.fastq.gz'
p247
aS'gs://motrpac-portal-transfer-sinai/data_for_stephen/Sample_FL-M-1-4-ACAGTG/fastq/FL-M-1-4-ACAGTG_ACAGTG_BCB03KANXX_L002_001.R2.fastq.gz'
p248
ag17
aS'gs://motrpac-portal-transfer-sinai/data_for_stephen/Sample_FL-M-1-4-ACAGTG/fastq/checksum/:'
p249
aS'gs://motrpac-portal-transfer-sinai/data_for_stephen/Sample_FL-M-1-4-ACAGTG/fastq/checksum/FL-M-1-4-ACAGTG_ACAGTG_BCB03KANXX_L002_001.R1.fastq.gz.md5'
p250
aS'gs://motrpac-portal-transfer-sinai/data_for_stephen/Sample_FL-M-1-4-ACAGTG/fastq/checksum/FL-M-1-4-ACAGTG_ACAGTG_BCB03KANXX_L002_001.R2.fastq.gz.md5'
p251
ag17
aS'gs://motrpac-portal-transfer-sinai/data_for_stephen/Sample_FL-M-1-4-CAGATC/:'
p252
ag17
aS'gs://motrpac-portal-transfer-sinai/data_for_stephen/Sample_FL-M-1-4-CAGATC/fastq/:'
p253
aS'gs://motrpac-portal-transfer-sinai/data_for_stephen/Sample_FL-M-1-4-CAGATC/fastq/FL-M-1-4-CAGATC_CAGATC_BCB03KANXX_L002_001.R1.fastq.gz'
p254
aS'gs://motrpac-portal-transfer-sinai/data_for_stephen/Sample_FL-M-1-4-CAGATC/fastq/FL-M-1-4-CAGATC_CAGATC_BCB03KANXX_L002_001.R2.fastq.gz'
p255
ag17
aS'gs://motrpac-portal-transfer-sinai/data_for_stephen/Sample_FL-M-1-4-CAGATC/fastq/checksum/:'
p256
aS'gs://motrpac-portal-transfer-sinai/data_for_stephen/Sample_FL-M-1-4-CAGATC/fastq/checksum/FL-M-1-4-CAGATC_CAGATC_BCB03KANXX_L002_001.R1.fastq.gz.md5'
p257
aS'gs://motrpac-portal-transfer-sinai/data_for_stephen/Sample_FL-M-1-4-CAGATC/fastq/checksum/FL-M-1-4-CAGATC_CAGATC_BCB03KANXX_L002_001.R2.fastq.gz.md5'
p258
ag17
aS'gs://motrpac-portal-transfer-sinai/data_for_stephen/Sample_FL-M-1-4-CGATGT/:'
p259
ag17
aS'gs://motrpac-portal-transfer-sinai/data_for_stephen/Sample_FL-M-1-4-CGATGT/fastq/:'
p260
aS'gs://motrpac-portal-transfer-sinai/data_for_stephen/Sample_FL-M-1-4-CGATGT/fastq/FL-M-1-4-CGATGT_CGATGT_BCB03KANXX_L002_001.R1.fastq.gz'
p261
aS'gs://motrpac-portal-transfer-sinai/data_for_stephen/Sample_FL-M-1-4-CGATGT/fastq/FL-M-1-4-CGATGT_CGATGT_BCB03KANXX_L002_001.R2.fastq.gz'
p262
ag17
aS'gs://motrpac-portal-transfer-sinai/data_for_stephen/Sample_FL-M-1-4-CGATGT/fastq/checksum/:'
p263
aS'gs://motrpac-portal-transfer-sinai/data_for_stephen/Sample_FL-M-1-4-CGATGT/fastq/checksum/FL-M-1-4-CGATGT_CGATGT_BCB03KANXX_L002_001.R1.fastq.gz.md5'
p264
aS'gs://motrpac-portal-transfer-sinai/data_for_stephen/Sample_FL-M-1-4-CGATGT/fastq/checksum/FL-M-1-4-CGATGT_CGATGT_BCB03KANXX_L002_001.R2.fastq.gz.md5'
p265
ag17
aS'gs://motrpac-portal-transfer-sinai/data_for_stephen/Sample_FL-M-1-4-TGACCA/:'
p266
ag17
aS'gs://motrpac-portal-transfer-sinai/data_for_stephen/Sample_FL-M-1-4-TGACCA/fastq/:'
p267
aS'gs://motrpac-portal-transfer-sinai/data_for_stephen/Sample_FL-M-1-4-TGACCA/fastq/FL-M-1-4-TGACCA_TGACCA_BCB03KANXX_L002_001.R1.fastq.gz'
p268
aS'gs://motrpac-portal-transfer-sinai/data_for_stephen/Sample_FL-M-1-4-TGACCA/fastq/FL-M-1-4-TGACCA_TGACCA_BCB03KANXX_L002_001.R2.fastq.gz'
p269
ag17
aS'gs://motrpac-portal-transfer-sinai/data_for_stephen/Sample_FL-M-1-4-TGACCA/fastq/checksum/:'
p270
aS'gs://motrpac-portal-transfer-sinai/data_for_stephen/Sample_FL-M-1-4-TGACCA/fastq/checksum/FL-M-1-4-TGACCA_TGACCA_BCB03KANXX_L002_001.R1.fastq.gz.md5'
p271
aS'gs://motrpac-portal-transfer-sinai/data_for_stephen/Sample_FL-M-1-4-TGACCA/fastq/checksum/FL-M-1-4-TGACCA_TGACCA_BCB03KANXX_L002_001.R2.fastq.gz.md5'
p272
ag17
aS'gs://motrpac-portal-transfer-sinai/data_for_stephen/Sample_FL-M-13-16-AGTCAA/:'
p273
ag17
aS'gs://motrpac-portal-transfer-sinai/data_for_stephen/Sample_FL-M-13-16-AGTCAA/fastq/:'
p274
aS'gs://motrpac-portal-transfer-sinai/data_for_stephen/Sample_FL-M-13-16-AGTCAA/fastq/FL-M-13-16-AGTCAA_AGTCAA_BCB03KANXX_L005_001.R1.fastq.gz'
p275
aS'gs://motrpac-portal-transfer-sinai/data_for_stephen/Sample_FL-M-13-16-AGTCAA/fastq/FL-M-13-16-AGTCAA_AGTCAA_BCB03KANXX_L005_001.R2.fastq.gz'
p276
ag17
aS'gs://motrpac-portal-transfer-sinai/data_for_stephen/Sample_FL-M-13-16-AGTCAA/fastq/checksum/:'
p277
aS'gs://motrpac-portal-transfer-sinai/data_for_stephen/Sample_FL-M-13-16-AGTCAA/fastq/checksum/FL-M-13-16-AGTCAA_AGTCAA_BCB03KANXX_L005_001.R1.fastq.gz.md5'
p278
aS'gs://motrpac-portal-transfer-sinai/data_for_stephen/Sample_FL-M-13-16-AGTCAA/fastq/checksum/FL-M-13-16-AGTCAA_AGTCAA_BCB03KANXX_L005_001.R2.fastq.gz.md5'
p279
ag17
aS'gs://motrpac-portal-transfer-sinai/data_for_stephen/Sample_FL-M-13-16-AGTTCC/:'
p280
ag17
aS'gs://motrpac-portal-transfer-sinai/data_for_stephen/Sample_FL-M-13-16-AGTTCC/fastq/:'
p281
aS'gs://motrpac-portal-transfer-sinai/data_for_stephen/Sample_FL-M-13-16-AGTTCC/fastq/FL-M-13-16-AGTTCC_AGTTCC_BCB03KANXX_L005_001.R1.fastq.gz'
p282
aS'gs://motrpac-portal-transfer-sinai/data_for_stephen/Sample_FL-M-13-16-AGTTCC/fastq/FL-M-13-16-AGTTCC_AGTTCC_BCB03KANXX_L005_001.R2.fastq.gz'
p283
ag17
aS'gs://motrpac-portal-transfer-sinai/data_for_stephen/Sample_FL-M-13-16-AGTTCC/fastq/checksum/:'
p284
aS'gs://motrpac-portal-transfer-sinai/data_for_stephen/Sample_FL-M-13-16-AGTTCC/fastq/checksum/FL-M-13-16-AGTTCC_AGTTCC_BCB03KANXX_L005_001.R1.fastq.gz.md5'
p285
aS'gs://motrpac-portal-transfer-sinai/data_for_stephen/Sample_FL-M-13-16-AGTTCC/fastq/checksum/FL-M-13-16-AGTTCC_AGTTCC_BCB03KANXX_L005_001.R2.fastq.gz.md5'
p286
ag17
aS'gs://motrpac-portal-transfer-sinai/data_for_stephen/Sample_FL-M-13-16-ATGTCA/:'
p287
ag17
aS'gs://motrpac-portal-transfer-sinai/data_for_stephen/Sample_FL-M-13-16-ATGTCA/fastq/:'
p288
aS'gs://motrpac-portal-transfer-sinai/data_for_stephen/Sample_FL-M-13-16-ATGTCA/fastq/FL-M-13-16-ATGTCA_ATGTCA_BCB03KANXX_L005_001.R1.fastq.gz'
p289
aS'gs://motrpac-portal-transfer-sinai/data_for_stephen/Sample_FL-M-13-16-ATGTCA/fastq/FL-M-13-16-ATGTCA_ATGTCA_BCB03KANXX_L005_001.R2.fastq.gz'
p290
ag17
aS'gs://motrpac-portal-transfer-sinai/data_for_stephen/Sample_FL-M-13-16-ATGTCA/fastq/checksum/:'
p291
aS'gs://motrpac-portal-transfer-sinai/data_for_stephen/Sample_FL-M-13-16-ATGTCA/fastq/checksum/FL-M-13-16-ATGTCA_ATGTCA_BCB03KANXX_L005_001.R1.fastq.gz.md5'
p292
aS'gs://motrpac-portal-transfer-sinai/data_for_stephen/Sample_FL-M-13-16-ATGTCA/fastq/checksum/FL-M-13-16-ATGTCA_ATGTCA_BCB03KANXX_L005_001.R2.fastq.gz.md5'
p293
ag17
aS'gs://motrpac-portal-transfer-sinai/data_for_stephen/Sample_FL-M-13-16-CCGTCC/:'
p294
ag17
aS'gs://motrpac-portal-transfer-sinai/data_for_stephen/Sample_FL-M-13-16-CCGTCC/fastq/:'
p295
aS'gs://motrpac-portal-transfer-sinai/data_for_stephen/Sample_FL-M-13-16-CCGTCC/fastq/FL-M-13-16-CCGTCC_CCGTCC_BCB03KANXX_L005_001.R1.fastq.gz'
p296
aS'gs://motrpac-portal-transfer-sinai/data_for_stephen/Sample_FL-M-13-16-CCGTCC/fastq/FL-M-13-16-CCGTCC_CCGTCC_BCB03KANXX_L005_001.R2.fastq.gz'
p297
ag17
aS'gs://motrpac-portal-transfer-sinai/data_for_stephen/Sample_FL-M-13-16-CCGTCC/fastq/checksum/:'
p298
aS'gs://motrpac-portal-transfer-sinai/data_for_stephen/Sample_FL-M-13-16-CCGTCC/fastq/checksum/FL-M-13-16-CCGTCC_CCGTCC_BCB03KANXX_L005_001.R1.fastq.gz.md5'
p299
aS'gs://motrpac-portal-transfer-sinai/data_for_stephen/Sample_FL-M-13-16-CCGTCC/fastq/checksum/FL-M-13-16-CCGTCC_CCGTCC_BCB03KANXX_L005_001.R2.fastq.gz.md5'
p300
ag17
aS'gs://motrpac-portal-transfer-sinai/data_for_stephen/Sample_FL-M-17-20-ACAGTG/:'
p301
ag17
aS'gs://motrpac-portal-transfer-sinai/data_for_stephen/Sample_FL-M-17-20-ACAGTG/fastq/:'
p302
aS'gs://motrpac-portal-transfer-sinai/data_for_stephen/Sample_FL-M-17-20-ACAGTG/fastq/FL-M-17-20-ACAGTG_ACAGTG_BCB03KANXX_L006_001.R1.fastq.gz'
p303
aS'gs://motrpac-portal-transfer-sinai/data_for_stephen/Sample_FL-M-17-20-ACAGTG/fastq/FL-M-17-20-ACAGTG_ACAGTG_BCB03KANXX_L006_001.R2.fastq.gz'
p304
ag17
aS'gs://motrpac-portal-transfer-sinai/data_for_stephen/Sample_FL-M-17-20-ACAGTG/fastq/checksum/:'
p305
aS'gs://motrpac-portal-transfer-sinai/data_for_stephen/Sample_FL-M-17-20-ACAGTG/fastq/checksum/FL-M-17-20-ACAGTG_ACAGTG_BCB03KANXX_L006_001.R1.fastq.gz.md5'
p306
aS'gs://motrpac-portal-transfer-sinai/data_for_stephen/Sample_FL-M-17-20-ACAGTG/fastq/checksum/FL-M-17-20-ACAGTG_ACAGTG_BCB03KANXX_L006_001.R2.fastq.gz.md5'
p307
ag17
aS'gs://motrpac-portal-transfer-sinai/data_for_stephen/Sample_FL-M-17-20-CAGATC/:'
p308
ag17
aS'gs://motrpac-portal-transfer-sinai/data_for_stephen/Sample_FL-M-17-20-CAGATC/fastq/:'
p309
aS'gs://motrpac-portal-transfer-sinai/data_for_stephen/Sample_FL-M-17-20-CAGATC/fastq/FL-M-17-20-CAGATC_CAGATC_BCB03KANXX_L006_001.R1.fastq.gz'
p310
aS'gs://motrpac-portal-transfer-sinai/data_for_stephen/Sample_FL-M-17-20-CAGATC/fastq/FL-M-17-20-CAGATC_CAGATC_BCB03KANXX_L006_001.R2.fastq.gz'
p311
ag17
aS'gs://motrpac-portal-transfer-sinai/data_for_stephen/Sample_FL-M-17-20-CAGATC/fastq/checksum/:'
p312
aS'gs://motrpac-portal-transfer-sinai/data_for_stephen/Sample_FL-M-17-20-CAGATC/fastq/checksum/FL-M-17-20-CAGATC_CAGATC_BCB03KANXX_L006_001.R1.fastq.gz.md5'
p313
aS'gs://motrpac-portal-transfer-sinai/data_for_stephen/Sample_FL-M-17-20-CAGATC/fastq/checksum/FL-M-17-20-CAGATC_CAGATC_BCB03KANXX_L006_001.R2.fastq.gz.md5'
p314
ag17
aS'gs://motrpac-portal-transfer-sinai/data_for_stephen/Sample_FL-M-17-20-CGATGT/:'
p315
ag17
aS'gs://motrpac-portal-transfer-sinai/data_for_stephen/Sample_FL-M-17-20-CGATGT/fastq/:'
p316
aS'gs://motrpac-portal-transfer-sinai/data_for_stephen/Sample_FL-M-17-20-CGATGT/fastq/FL-M-17-20-CGATGT_CGATGT_BCB03KANXX_L006_001.R1.fastq.gz'
p317
aS'gs://motrpac-portal-transfer-sinai/data_for_stephen/Sample_FL-M-17-20-CGATGT/fastq/FL-M-17-20-CGATGT_CGATGT_BCB03KANXX_L006_001.R2.fastq.gz'
p318
ag17
aS'gs://motrpac-portal-transfer-sinai/data_for_stephen/Sample_FL-M-17-20-CGATGT/fastq/checksum/:'
p319
aS'gs://motrpac-portal-transfer-sinai/data_for_stephen/Sample_FL-M-17-20-CGATGT/fastq/checksum/FL-M-17-20-CGATGT_CGATGT_BCB03KANXX_L006_001.R1.fastq.gz.md5'
p320
aS'gs://motrpac-portal-transfer-sinai/data_for_stephen/Sample_FL-M-17-20-CGATGT/fastq/checksum/FL-M-17-20-CGATGT_CGATGT_BCB03KANXX_L006_001.R2.fastq.gz.md5'
p321
ag17
aS'gs://motrpac-portal-transfer-sinai/data_for_stephen/Sample_FL-M-17-20-TGACCA/:'
p322
ag17
aS'gs://motrpac-portal-transfer-sinai/data_for_stephen/Sample_FL-M-17-20-TGACCA/fastq/:'
p323
aS'gs://motrpac-portal-transfer-sinai/data_for_stephen/Sample_FL-M-17-20-TGACCA/fastq/FL-M-17-20-TGACCA_TGACCA_BCB03KANXX_L006_001.R1.fastq.gz'
p324
aS'gs://motrpac-portal-transfer-sinai/data_for_stephen/Sample_FL-M-17-20-TGACCA/fastq/FL-M-17-20-TGACCA_TGACCA_BCB03KANXX_L006_001.R2.fastq.gz'
p325
ag17
aS'gs://motrpac-portal-transfer-sinai/data_for_stephen/Sample_FL-M-17-20-TGACCA/fastq/checksum/:'
p326
aS'gs://motrpac-portal-transfer-sinai/data_for_stephen/Sample_FL-M-17-20-TGACCA/fastq/checksum/FL-M-17-20-TGACCA_TGACCA_BCB03KANXX_L006_001.R1.fastq.gz.md5'
p327
aS'gs://motrpac-portal-transfer-sinai/data_for_stephen/Sample_FL-M-17-20-TGACCA/fastq/checksum/FL-M-17-20-TGACCA_TGACCA_BCB03KANXX_L006_001.R2.fastq.gz.md5'
p328
ag17
aS'gs://motrpac-portal-transfer-sinai/data_for_stephen/Sample_FL-M-1a-4a-ACTCCT/:'
p329
ag17
aS'gs://motrpac-portal-transfer-sinai/data_for_stephen/Sample_FL-M-1a-4a-ACTCCT/fastq/:'
p330
aS'gs://motrpac-portal-transfer-sinai/data_for_stephen/Sample_FL-M-1a-4a-ACTCCT/fastq/FL-M-1a-4a-ACTCCT_ACTCCT_BCB03KANXX_L001_001.R1.fastq.gz'
p331
aS'gs://motrpac-portal-transfer-sinai/data_for_stephen/Sample_FL-M-1a-4a-ACTCCT/fastq/FL-M-1a-4a-ACTCCT_ACTCCT_BCB03KANXX_L001_001.R2.fastq.gz'
p332
ag17
aS'gs://motrpac-portal-transfer-sinai/data_for_stephen/Sample_FL-M-1a-4a-ACTCCT/fastq/checksum/:'
p333
aS'gs://motrpac-portal-transfer-sinai/data_for_stephen/Sample_FL-M-1a-4a-ACTCCT/fastq/checksum/FL-M-1a-4a-ACTCCT_ACTCCT_BCB03KANXX_L001_001.R1.fastq.gz.md5'
p334
aS'gs://motrpac-portal-transfer-sinai/data_for_stephen/Sample_FL-M-1a-4a-ACTCCT/fastq/checksum/FL-M-1a-4a-ACTCCT_ACTCCT_BCB03KANXX_L001_001.R2.fastq.gz.md5'
p335
ag17
aS'gs://motrpac-portal-transfer-sinai/data_for_stephen/Sample_FL-M-1a-4a-CTCCTA/:'
p336
ag17
aS'gs://motrpac-portal-transfer-sinai/data_for_stephen/Sample_FL-M-1a-4a-CTCCTA/fastq/:'
p337
aS'gs://motrpac-portal-transfer-sinai/data_for_stephen/Sample_FL-M-1a-4a-CTCCTA/fastq/FL-M-1a-4a-CTCCTA_CTCCTA_BCB03KANXX_L001_001.R1.fastq.gz'
p338
aS'gs://motrpac-portal-transfer-sinai/data_for_stephen/Sample_FL-M-1a-4a-CTCCTA/fastq/FL-M-1a-4a-CTCCTA_CTCCTA_BCB03KANXX_L001_001.R2.fastq.gz'
p339
ag17
aS'gs://motrpac-portal-transfer-sinai/data_for_stephen/Sample_FL-M-1a-4a-CTCCTA/fastq/checksum/:'
p340
aS'gs://motrpac-portal-transfer-sinai/data_for_stephen/Sample_FL-M-1a-4a-CTCCTA/fastq/checksum/FL-M-1a-4a-CTCCTA_CTCCTA_BCB03KANXX_L001_001.R1.fastq.gz.md5'
p341
aS'gs://motrpac-portal-transfer-sinai/data_for_stephen/Sample_FL-M-1a-4a-CTCCTA/fastq/checksum/FL-M-1a-4a-CTCCTA_CTCCTA_BCB03KANXX_L001_001.R2.fastq.gz.md5'
p342
ag17
aS'gs://motrpac-portal-transfer-sinai/data_for_stephen/Sample_FL-M-1a-4a-GACTAC/:'
p343
ag17
aS'gs://motrpac-portal-transfer-sinai/data_for_stephen/Sample_FL-M-1a-4a-GACTAC/fastq/:'
p344
aS'gs://motrpac-portal-transfer-sinai/data_for_stephen/Sample_FL-M-1a-4a-GACTAC/fastq/FL-M-1a-4a-GACTAC_GACTAC_BCB03KANXX_L001_001.R1.fastq.gz'
p345
aS'gs://motrpac-portal-transfer-sinai/data_for_stephen/Sample_FL-M-1a-4a-GACTAC/fastq/FL-M-1a-4a-GACTAC_GACTAC_BCB03KANXX_L001_001.R2.fastq.gz'
p346
ag17
aS'gs://motrpac-portal-transfer-sinai/data_for_stephen/Sample_FL-M-1a-4a-GACTAC/fastq/checksum/:'
p347
aS'gs://motrpac-portal-transfer-sinai/data_for_stephen/Sample_FL-M-1a-4a-GACTAC/fastq/checksum/FL-M-1a-4a-GACTAC_GACTAC_BCB03KANXX_L001_001.R1.fastq.gz.md5'
p348
aS'gs://motrpac-portal-transfer-sinai/data_for_stephen/Sample_FL-M-1a-4a-GACTAC/fastq/checksum/FL-M-1a-4a-GACTAC_GACTAC_BCB03KANXX_L001_001.R2.fastq.gz.md5'
p349
ag17
aS'gs://motrpac-portal-transfer-sinai/data_for_stephen/Sample_FL-M-1a-4a-TCTTCG/:'
p350
ag17
aS'gs://motrpac-portal-transfer-sinai/data_for_stephen/Sample_FL-M-1a-4a-TCTTCG/fastq/:'
p351
aS'gs://motrpac-portal-transfer-sinai/data_for_stephen/Sample_FL-M-1a-4a-TCTTCG/fastq/FL-M-1a-4a-TCTTCG_TCTTCG_BCB03KANXX_L001_001.R1.fastq.gz'
p352
aS'gs://motrpac-portal-transfer-sinai/data_for_stephen/Sample_FL-M-1a-4a-TCTTCG/fastq/FL-M-1a-4a-TCTTCG_TCTTCG_BCB03KANXX_L001_001.R2.fastq.gz'
p353
ag17
aS'gs://motrpac-portal-transfer-sinai/data_for_stephen/Sample_FL-M-1a-4a-TCTTCG/fastq/checksum/:'
p354
aS'gs://motrpac-portal-transfer-sinai/data_for_stephen/Sample_FL-M-1a-4a-TCTTCG/fastq/checksum/FL-M-1a-4a-TCTTCG_TCTTCG_BCB03KANXX_L001_001.R1.fastq.gz.md5'
p355
aS'gs://motrpac-portal-transfer-sinai/data_for_stephen/Sample_FL-M-1a-4a-TCTTCG/fastq/checksum/FL-M-1a-4a-TCTTCG_TCTTCG_BCB03KANXX_L001_001.R2.fastq.gz.md5'
p356
ag17
aS'gs://motrpac-portal-transfer-sinai/data_for_stephen/Sample_FL-M-21-25-AGTCAA/:'
p357
ag17
aS'gs://motrpac-portal-transfer-sinai/data_for_stephen/Sample_FL-M-21-25-AGTCAA/fastq/:'
p358
aS'gs://motrpac-portal-transfer-sinai/data_for_stephen/Sample_FL-M-21-25-AGTCAA/fastq/FL-M-21-25-AGTCAA_AGTCAA_BCB03KANXX_L007_001.R1.fastq.gz'
p359
aS'gs://motrpac-portal-transfer-sinai/data_for_stephen/Sample_FL-M-21-25-AGTCAA/fastq/FL-M-21-25-AGTCAA_AGTCAA_BCB03KANXX_L007_001.R2.fastq.gz'
p360
ag17
aS'gs://motrpac-portal-transfer-sinai/data_for_stephen/Sample_FL-M-21-25-AGTCAA/fastq/checksum/:'
p361
aS'gs://motrpac-portal-transfer-sinai/data_for_stephen/Sample_FL-M-21-25-AGTCAA/fastq/checksum/FL-M-21-25-AGTCAA_AGTCAA_BCB03KANXX_L007_001.R1.fastq.gz.md5'
p362
aS'gs://motrpac-portal-transfer-sinai/data_for_stephen/Sample_FL-M-21-25-AGTCAA/fastq/checksum/FL-M-21-25-AGTCAA_AGTCAA_BCB03KANXX_L007_001.R2.fastq.gz.md5'
p363
ag17
aS'gs://motrpac-portal-transfer-sinai/data_for_stephen/Sample_FL-M-21-25-AGTTCC/:'
p364
ag17
aS'gs://motrpac-portal-transfer-sinai/data_for_stephen/Sample_FL-M-21-25-AGTTCC/fastq/:'
p365
aS'gs://motrpac-portal-transfer-sinai/data_for_stephen/Sample_FL-M-21-25-AGTTCC/fastq/FL-M-21-25-AGTTCC_AGTTCC_BCB03KANXX_L007_001.R1.fastq.gz'
p366
aS'gs://motrpac-portal-transfer-sinai/data_for_stephen/Sample_FL-M-21-25-AGTTCC/fastq/FL-M-21-25-AGTTCC_AGTTCC_BCB03KANXX_L007_001.R2.fastq.gz'
p367
ag17
aS'gs://motrpac-portal-transfer-sinai/data_for_stephen/Sample_FL-M-21-25-AGTTCC/fastq/checksum/:'
p368
aS'gs://motrpac-portal-transfer-sinai/data_for_stephen/Sample_FL-M-21-25-AGTTCC/fastq/checksum/FL-M-21-25-AGTTCC_AGTTCC_BCB03KANXX_L007_001.R1.fastq.gz.md5'
p369
aS'gs://motrpac-portal-transfer-sinai/data_for_stephen/Sample_FL-M-21-25-AGTTCC/fastq/checksum/FL-M-21-25-AGTTCC_AGTTCC_BCB03KANXX_L007_001.R2.fastq.gz.md5'
p370
ag17
aS'gs://motrpac-portal-transfer-sinai/data_for_stephen/Sample_FL-M-21-25-ATGTCA/:'
p371
ag17
aS'gs://motrpac-portal-transfer-sinai/data_for_stephen/Sample_FL-M-21-25-ATGTCA/fastq/:'
p372
aS'gs://motrpac-portal-transfer-sinai/data_for_stephen/Sample_FL-M-21-25-ATGTCA/fastq/FL-M-21-25-ATGTCA_ATGTCA_BCB03KANXX_L007_001.R1.fastq.gz'
p373
aS'gs://motrpac-portal-transfer-sinai/data_for_stephen/Sample_FL-M-21-25-ATGTCA/fastq/FL-M-21-25-ATGTCA_ATGTCA_BCB03KANXX_L007_001.R2.fastq.gz'
p374
ag17
aS'gs://motrpac-portal-transfer-sinai/data_for_stephen/Sample_FL-M-21-25-ATGTCA/fastq/checksum/:'
p375
aS'gs://motrpac-portal-transfer-sinai/data_for_stephen/Sample_FL-M-21-25-ATGTCA/fastq/checksum/FL-M-21-25-ATGTCA_ATGTCA_BCB03KANXX_L007_001.R1.fastq.gz.md5'
p376
aS'gs://motrpac-portal-transfer-sinai/data_for_stephen/Sample_FL-M-21-25-ATGTCA/fastq/checksum/FL-M-21-25-ATGTCA_ATGTCA_BCB03KANXX_L007_001.R2.fastq.gz.md5'
p377
ag17
aS'gs://motrpac-portal-transfer-sinai/data_for_stephen/Sample_FL-M-21-25-CCGTCC/:'
p378
ag17
aS'gs://motrpac-portal-transfer-sinai/data_for_stephen/Sample_FL-M-21-25-CCGTCC/fastq/:'
p379
aS'gs://motrpac-portal-transfer-sinai/data_for_stephen/Sample_FL-M-21-25-CCGTCC/fastq/FL-M-21-25-CCGTCC_CCGTCC_BCB03KANXX_L007_001.R1.fastq.gz'
p380
aS'gs://motrpac-portal-transfer-sinai/data_for_stephen/Sample_FL-M-21-25-CCGTCC/fastq/FL-M-21-25-CCGTCC_CCGTCC_BCB03KANXX_L007_001.R2.fastq.gz'
p381
ag17
aS'gs://motrpac-portal-transfer-sinai/data_for_stephen/Sample_FL-M-21-25-CCGTCC/fastq/checksum/:'
p382
aS'gs://motrpac-portal-transfer-sinai/data_for_stephen/Sample_FL-M-21-25-CCGTCC/fastq/checksum/FL-M-21-25-CCGTCC_CCGTCC_BCB03KANXX_L007_001.R1.fastq.gz.md5'
p383
aS'gs://motrpac-portal-transfer-sinai/data_for_stephen/Sample_FL-M-21-25-CCGTCC/fastq/checksum/FL-M-21-25-CCGTCC_CCGTCC_BCB03KANXX_L007_001.R2.fastq.gz.md5'
p384
ag17
aS'gs://motrpac-portal-transfer-sinai/data_for_stephen/Sample_FL-M-21-25-CGATGT/:'
p385
ag17
aS'gs://motrpac-portal-transfer-sinai/data_for_stephen/Sample_FL-M-21-25-CGATGT/fastq/:'
p386
aS'gs://motrpac-portal-transfer-sinai/data_for_stephen/Sample_FL-M-21-25-CGATGT/fastq/FL-M-21-25-CGATGT_CGATGT_BCB03KANXX_L007_001.R1.fastq.gz'
p387
aS'gs://motrpac-portal-transfer-sinai/data_for_stephen/Sample_FL-M-21-25-CGATGT/fastq/FL-M-21-25-CGATGT_CGATGT_BCB03KANXX_L007_001.R2.fastq.gz'
p388
ag17
aS'gs://motrpac-portal-transfer-sinai/data_for_stephen/Sample_FL-M-21-25-CGATGT/fastq/checksum/:'
p389
aS'gs://motrpac-portal-transfer-sinai/data_for_stephen/Sample_FL-M-21-25-CGATGT/fastq/checksum/FL-M-21-25-CGATGT_CGATGT_BCB03KANXX_L007_001.R1.fastq.gz.md5'
p390
aS'gs://motrpac-portal-transfer-sinai/data_for_stephen/Sample_FL-M-21-25-CGATGT/fastq/checksum/FL-M-21-25-CGATGT_CGATGT_BCB03KANXX_L007_001.R2.fastq.gz.md5'
p391
ag17
aS'gs://motrpac-portal-transfer-sinai/data_for_stephen/Sample_FL-M-26-30-ACAGTG/:'
p392
ag17
aS'gs://motrpac-portal-transfer-sinai/data_for_stephen/Sample_FL-M-26-30-ACAGTG/fastq/:'
p393
aS'gs://motrpac-portal-transfer-sinai/data_for_stephen/Sample_FL-M-26-30-ACAGTG/fastq/FL-M-26-30-ACAGTG_ACAGTG_BCB03KANXX_L008_001.R1.fastq.gz'
p394
aS'gs://motrpac-portal-transfer-sinai/data_for_stephen/Sample_FL-M-26-30-ACAGTG/fastq/FL-M-26-30-ACAGTG_ACAGTG_BCB03KANXX_L008_001.R2.fastq.gz'
p395
ag17
aS'gs://motrpac-portal-transfer-sinai/data_for_stephen/Sample_FL-M-26-30-ACAGTG/fastq/checksum/:'
p396
aS'gs://motrpac-portal-transfer-sinai/data_for_stephen/Sample_FL-M-26-30-ACAGTG/fastq/checksum/FL-M-26-30-ACAGTG_ACAGTG_BCB03KANXX_L008_001.R1.fastq.gz.md5'
p397
aS'gs://motrpac-portal-transfer-sinai/data_for_stephen/Sample_FL-M-26-30-ACAGTG/fastq/checksum/FL-M-26-30-ACAGTG_ACAGTG_BCB03KANXX_L008_001.R2.fastq.gz.md5'
p398
ag17
aS'gs://motrpac-portal-transfer-sinai/data_for_stephen/Sample_FL-M-26-30-AGTCAA/:'
p399
ag17
aS'gs://motrpac-portal-transfer-sinai/data_for_stephen/Sample_FL-M-26-30-AGTCAA/fastq/:'
p400
aS'gs://motrpac-portal-transfer-sinai/data_for_stephen/Sample_FL-M-26-30-AGTCAA/fastq/FL-M-26-30-AGTCAA_AGTCAA_BCB03KANXX_L008_001.R1.fastq.gz'
p401
aS'gs://motrpac-portal-transfer-sinai/data_for_stephen/Sample_FL-M-26-30-AGTCAA/fastq/FL-M-26-30-AGTCAA_AGTCAA_BCB03KANXX_L008_001.R2.fastq.gz'
p402
ag17
aS'gs://motrpac-portal-transfer-sinai/data_for_stephen/Sample_FL-M-26-30-AGTCAA/fastq/checksum/:'
p403
aS'gs://motrpac-portal-transfer-sinai/data_for_stephen/Sample_FL-M-26-30-AGTCAA/fastq/checksum/FL-M-26-30-AGTCAA_AGTCAA_BCB03KANXX_L008_001.R1.fastq.gz.md5'
p404
aS'gs://motrpac-portal-transfer-sinai/data_for_stephen/Sample_FL-M-26-30-AGTCAA/fastq/checksum/FL-M-26-30-AGTCAA_AGTCAA_BCB03KANXX_L008_001.R2.fastq.gz.md5'
p405
ag17
aS'gs://motrpac-portal-transfer-sinai/data_for_stephen/Sample_FL-M-26-30-AGTTCC/:'
p406
ag17
aS'gs://motrpac-portal-transfer-sinai/data_for_stephen/Sample_FL-M-26-30-AGTTCC/fastq/:'
p407
aS'gs://motrpac-portal-transfer-sinai/data_for_stephen/Sample_FL-M-26-30-AGTTCC/fastq/FL-M-26-30-AGTTCC_AGTTCC_BCB03KANXX_L008_001.R1.fastq.gz'
p408
aS'gs://motrpac-portal-transfer-sinai/data_for_stephen/Sample_FL-M-26-30-AGTTCC/fastq/FL-M-26-30-AGTTCC_AGTTCC_BCB03KANXX_L008_001.R2.fastq.gz'
p409
ag17
aS'gs://motrpac-portal-transfer-sinai/data_for_stephen/Sample_FL-M-26-30-AGTTCC/fastq/checksum/:'
p410
aS'gs://motrpac-portal-transfer-sinai/data_for_stephen/Sample_FL-M-26-30-AGTTCC/fastq/checksum/FL-M-26-30-AGTTCC_AGTTCC_BCB03KANXX_L008_001.R1.fastq.gz.md5'
p411
aS'gs://motrpac-portal-transfer-sinai/data_for_stephen/Sample_FL-M-26-30-AGTTCC/fastq/checksum/FL-M-26-30-AGTTCC_AGTTCC_BCB03KANXX_L008_001.R2.fastq.gz.md5'
p412
ag17
aS'gs://motrpac-portal-transfer-sinai/data_for_stephen/Sample_FL-M-26-30-CAGATC/:'
p413
ag17
aS'gs://motrpac-portal-transfer-sinai/data_for_stephen/Sample_FL-M-26-30-CAGATC/fastq/:'
p414
aS'gs://motrpac-portal-transfer-sinai/data_for_stephen/Sample_FL-M-26-30-CAGATC/fastq/FL-M-26-30-CAGATC_CAGATC_BCB03KANXX_L008_001.R1.fastq.gz'
p415
aS'gs://motrpac-portal-transfer-sinai/data_for_stephen/Sample_FL-M-26-30-CAGATC/fastq/FL-M-26-30-CAGATC_CAGATC_BCB03KANXX_L008_001.R2.fastq.gz'
p416
ag17
aS'gs://motrpac-portal-transfer-sinai/data_for_stephen/Sample_FL-M-26-30-CAGATC/fastq/checksum/:'
p417
aS'gs://motrpac-portal-transfer-sinai/data_for_stephen/Sample_FL-M-26-30-CAGATC/fastq/checksum/FL-M-26-30-CAGATC_CAGATC_BCB03KANXX_L008_001.R1.fastq.gz.md5'
p418
aS'gs://motrpac-portal-transfer-sinai/data_for_stephen/Sample_FL-M-26-30-CAGATC/fastq/checksum/FL-M-26-30-CAGATC_CAGATC_BCB03KANXX_L008_001.R2.fastq.gz.md5'
p419
ag17
aS'gs://motrpac-portal-transfer-sinai/data_for_stephen/Sample_FL-M-26-30-TGACCA/:'
p420
ag17
aS'gs://motrpac-portal-transfer-sinai/data_for_stephen/Sample_FL-M-26-30-TGACCA/fastq/:'
p421
aS'gs://motrpac-portal-transfer-sinai/data_for_stephen/Sample_FL-M-26-30-TGACCA/fastq/FL-M-26-30-TGACCA_TGACCA_BCB03KANXX_L008_001.R1.fastq.gz'
p422
aS'gs://motrpac-portal-transfer-sinai/data_for_stephen/Sample_FL-M-26-30-TGACCA/fastq/FL-M-26-30-TGACCA_TGACCA_BCB03KANXX_L008_001.R2.fastq.gz'
p423
ag17
aS'gs://motrpac-portal-transfer-sinai/data_for_stephen/Sample_FL-M-26-30-TGACCA/fastq/checksum/:'
p424
aS'gs://motrpac-portal-transfer-sinai/data_for_stephen/Sample_FL-M-26-30-TGACCA/fastq/checksum/FL-M-26-30-TGACCA_TGACCA_BCB03KANXX_L008_001.R1.fastq.gz.md5'
p425
aS'gs://motrpac-portal-transfer-sinai/data_for_stephen/Sample_FL-M-26-30-TGACCA/fastq/checksum/FL-M-26-30-TGACCA_TGACCA_BCB03KANXX_L008_001.R2.fastq.gz.md5'
p426
ag17
aS'gs://motrpac-portal-transfer-sinai/data_for_stephen/Sample_FL-M-5-8-AGTCAA/:'
p427
ag17
aS'gs://motrpac-portal-transfer-sinai/data_for_stephen/Sample_FL-M-5-8-AGTCAA/fastq/:'
p428
aS'gs://motrpac-portal-transfer-sinai/data_for_stephen/Sample_FL-M-5-8-AGTCAA/fastq/FL-M-5-8-AGTCAA_AGTCAA_BCB03KANXX_L003_001.R1.fastq.gz'
p429
aS'gs://motrpac-portal-transfer-sinai/data_for_stephen/Sample_FL-M-5-8-AGTCAA/fastq/FL-M-5-8-AGTCAA_AGTCAA_BCB03KANXX_L003_001.R2.fastq.gz'
p430
ag17
aS'gs://motrpac-portal-transfer-sinai/data_for_stephen/Sample_FL-M-5-8-AGTCAA/fastq/checksum/:'
p431
aS'gs://motrpac-portal-transfer-sinai/data_for_stephen/Sample_FL-M-5-8-AGTCAA/fastq/checksum/FL-M-5-8-AGTCAA_AGTCAA_BCB03KANXX_L003_001.R1.fastq.gz.md5'
p432
aS'gs://motrpac-portal-transfer-sinai/data_for_stephen/Sample_FL-M-5-8-AGTCAA/fastq/checksum/FL-M-5-8-AGTCAA_AGTCAA_BCB03KANXX_L003_001.R2.fastq.gz.md5'
p433
ag17
aS'gs://motrpac-portal-transfer-sinai/data_for_stephen/Sample_FL-M-5-8-AGTTCC/:'
p434
ag17
aS'gs://motrpac-portal-transfer-sinai/data_for_stephen/Sample_FL-M-5-8-AGTTCC/fastq/:'
p435
aS'gs://motrpac-portal-transfer-sinai/data_for_stephen/Sample_FL-M-5-8-AGTTCC/fastq/FL-M-5-8-AGTTCC_AGTTCC_BCB03KANXX_L003_001.R1.fastq.gz'
p436
aS'gs://motrpac-portal-transfer-sinai/data_for_stephen/Sample_FL-M-5-8-AGTTCC/fastq/FL-M-5-8-AGTTCC_AGTTCC_BCB03KANXX_L003_001.R2.fastq.gz'
p437
ag17
aS'gs://motrpac-portal-transfer-sinai/data_for_stephen/Sample_FL-M-5-8-AGTTCC/fastq/checksum/:'
p438
aS'gs://motrpac-portal-transfer-sinai/data_for_stephen/Sample_FL-M-5-8-AGTTCC/fastq/checksum/FL-M-5-8-AGTTCC_AGTTCC_BCB03KANXX_L003_001.R1.fastq.gz.md5'
p439
aS'gs://motrpac-portal-transfer-sinai/data_for_stephen/Sample_FL-M-5-8-AGTTCC/fastq/checksum/FL-M-5-8-AGTTCC_AGTTCC_BCB03KANXX_L003_001.R2.fastq.gz.md5'
p440
ag17
aS'gs://motrpac-portal-transfer-sinai/data_for_stephen/Sample_FL-M-5-8-ATGTCA/:'
p441
ag17
aS'gs://motrpac-portal-transfer-sinai/data_for_stephen/Sample_FL-M-5-8-ATGTCA/fastq/:'
p442
aS'gs://motrpac-portal-transfer-sinai/data_for_stephen/Sample_FL-M-5-8-ATGTCA/fastq/FL-M-5-8-ATGTCA_ATGTCA_BCB03KANXX_L003_001.R1.fastq.gz'
p443
aS'gs://motrpac-portal-transfer-sinai/data_for_stephen/Sample_FL-M-5-8-ATGTCA/fastq/FL-M-5-8-ATGTCA_ATGTCA_BCB03KANXX_L003_001.R2.fastq.gz'
p444
ag17
aS'gs://motrpac-portal-transfer-sinai/data_for_stephen/Sample_FL-M-5-8-ATGTCA/fastq/checksum/:'
p445
aS'gs://motrpac-portal-transfer-sinai/data_for_stephen/Sample_FL-M-5-8-ATGTCA/fastq/checksum/FL-M-5-8-ATGTCA_ATGTCA_BCB03KANXX_L003_001.R1.fastq.gz.md5'
p446
aS'gs://motrpac-portal-transfer-sinai/data_for_stephen/Sample_FL-M-5-8-ATGTCA/fastq/checksum/FL-M-5-8-ATGTCA_ATGTCA_BCB03KANXX_L003_001.R2.fastq.gz.md5'
p447
ag17
aS'gs://motrpac-portal-transfer-sinai/data_for_stephen/Sample_FL-M-5-8-CCGTCC/:'
p448
ag17
aS'gs://motrpac-portal-transfer-sinai/data_for_stephen/Sample_FL-M-5-8-CCGTCC/fastq/:'
p449
aS'gs://motrpac-portal-transfer-sinai/data_for_stephen/Sample_FL-M-5-8-CCGTCC/fastq/FL-M-5-8-CCGTCC_CCGTCC_BCB03KANXX_L003_001.R1.fastq.gz'
p450
aS'gs://motrpac-portal-transfer-sinai/data_for_stephen/Sample_FL-M-5-8-CCGTCC/fastq/FL-M-5-8-CCGTCC_CCGTCC_BCB03KANXX_L003_001.R2.fastq.gz'
p451
ag17
aS'gs://motrpac-portal-transfer-sinai/data_for_stephen/Sample_FL-M-5-8-CCGTCC/fastq/checksum/:'
p452
aS'gs://motrpac-portal-transfer-sinai/data_for_stephen/Sample_FL-M-5-8-CCGTCC/fastq/checksum/FL-M-5-8-CCGTCC_CCGTCC_BCB03KANXX_L003_001.R1.fastq.gz.md5'
p453
aS'gs://motrpac-portal-transfer-sinai/data_for_stephen/Sample_FL-M-5-8-CCGTCC/fastq/checksum/FL-M-5-8-CCGTCC_CCGTCC_BCB03KANXX_L003_001.R2.fastq.gz.md5'
p454
ag17
aS'gs://motrpac-portal-transfer-sinai/data_for_stephen/Sample_FL-M-9-12-ACAGTG/:'
p455
ag17
aS'gs://motrpac-portal-transfer-sinai/data_for_stephen/Sample_FL-M-9-12-ACAGTG/fastq/:'
p456
aS'gs://motrpac-portal-transfer-sinai/data_for_stephen/Sample_FL-M-9-12-ACAGTG/fastq/FL-M-9-12-ACAGTG_ACAGTG_BCB03KANXX_L004_001.R1.fastq.gz'
p457
aS'gs://motrpac-portal-transfer-sinai/data_for_stephen/Sample_FL-M-9-12-ACAGTG/fastq/FL-M-9-12-ACAGTG_ACAGTG_BCB03KANXX_L004_001.R2.fastq.gz'
p458
ag17
aS'gs://motrpac-portal-transfer-sinai/data_for_stephen/Sample_FL-M-9-12-ACAGTG/fastq/checksum/:'
p459
aS'gs://motrpac-portal-transfer-sinai/data_for_stephen/Sample_FL-M-9-12-ACAGTG/fastq/checksum/FL-M-9-12-ACAGTG_ACAGTG_BCB03KANXX_L004_001.R1.fastq.gz.md5'
p460
aS'gs://motrpac-portal-transfer-sinai/data_for_stephen/Sample_FL-M-9-12-ACAGTG/fastq/checksum/FL-M-9-12-ACAGTG_ACAGTG_BCB03KANXX_L004_001.R2.fastq.gz.md5'
p461
ag17
aS'gs://motrpac-portal-transfer-sinai/data_for_stephen/Sample_FL-M-9-12-CAGATC/:'
p462
ag17
aS'gs://motrpac-portal-transfer-sinai/data_for_stephen/Sample_FL-M-9-12-CAGATC/fastq/:'
p463
aS'gs://motrpac-portal-transfer-sinai/data_for_stephen/Sample_FL-M-9-12-CAGATC/fastq/FL-M-9-12-CAGATC_CAGATC_BCB03KANXX_L004_001.R1.fastq.gz'
p464
aS'gs://motrpac-portal-transfer-sinai/data_for_stephen/Sample_FL-M-9-12-CAGATC/fastq/FL-M-9-12-CAGATC_CAGATC_BCB03KANXX_L004_001.R2.fastq.gz'
p465
ag17
aS'gs://motrpac-portal-transfer-sinai/data_for_stephen/Sample_FL-M-9-12-CAGATC/fastq/checksum/:'
p466
aS'gs://motrpac-portal-transfer-sinai/data_for_stephen/Sample_FL-M-9-12-CAGATC/fastq/checksum/FL-M-9-12-CAGATC_CAGATC_BCB03KANXX_L004_001.R1.fastq.gz.md5'
p467
aS'gs://motrpac-portal-transfer-sinai/data_for_stephen/Sample_FL-M-9-12-CAGATC/fastq/checksum/FL-M-9-12-CAGATC_CAGATC_BCB03KANXX_L004_001.R2.fastq.gz.md5'
p468
ag17
aS'gs://motrpac-portal-transfer-sinai/data_for_stephen/Sample_FL-M-9-12-CGATGT/:'
p469
ag17
aS'gs://motrpac-portal-transfer-sinai/data_for_stephen/Sample_FL-M-9-12-CGATGT/fastq/:'
p470
aS'gs://motrpac-portal-transfer-sinai/data_for_stephen/Sample_FL-M-9-12-CGATGT/fastq/FL-M-9-12-CGATGT_CGATGT_BCB03KANXX_L004_001.R1.fastq.gz'
p471
aS'gs://motrpac-portal-transfer-sinai/data_for_stephen/Sample_FL-M-9-12-CGATGT/fastq/FL-M-9-12-CGATGT_CGATGT_BCB03KANXX_L004_001.R2.fastq.gz'
p472
ag17
aS'gs://motrpac-portal-transfer-sinai/data_for_stephen/Sample_FL-M-9-12-CGATGT/fastq/checksum/:'
p473
aS'gs://motrpac-portal-transfer-sinai/data_for_stephen/Sample_FL-M-9-12-CGATGT/fastq/checksum/FL-M-9-12-CGATGT_CGATGT_BCB03KANXX_L004_001.R1.fastq.gz.md5'
p474
aS'gs://motrpac-portal-transfer-sinai/data_for_stephen/Sample_FL-M-9-12-CGATGT/fastq/checksum/FL-M-9-12-CGATGT_CGATGT_BCB03KANXX_L004_001.R2.fastq.gz.md5'
p475
ag17
aS'gs://motrpac-portal-transfer-sinai/data_for_stephen/Sample_FL-M-9-12-TGACCA/:'
p476
ag17
aS'gs://motrpac-portal-transfer-sinai/data_for_stephen/Sample_FL-M-9-12-TGACCA/fastq/:'
p477
aS'gs://motrpac-portal-transfer-sinai/data_for_stephen/Sample_FL-M-9-12-TGACCA/fastq/FL-M-9-12-TGACCA_TGACCA_BCB03KANXX_L004_001.R1.fastq.gz'
p478
aS'gs://motrpac-portal-transfer-sinai/data_for_stephen/Sample_FL-M-9-12-TGACCA/fastq/FL-M-9-12-TGACCA_TGACCA_BCB03KANXX_L004_001.R2.fastq.gz'
p479
ag17
aS'gs://motrpac-portal-transfer-sinai/data_for_stephen/Sample_FL-M-9-12-TGACCA/fastq/checksum/:'
p480
aS'gs://motrpac-portal-transfer-sinai/data_for_stephen/Sample_FL-M-9-12-TGACCA/fastq/checksum/FL-M-9-12-TGACCA_TGACCA_BCB03KANXX_L004_001.R1.fastq.gz.md5'
p481
aS'gs://motrpac-portal-transfer-sinai/data_for_stephen/Sample_FL-M-9-12-TGACCA/fastq/checksum/FL-M-9-12-TGACCA_TGACCA_BCB03KANXX_L004_001.R2.fastq.gz.md5'
p482
asS'gs://motrpac-portal-transfer-pittsburgh/'
p483
(lp484
sS'gs://motrpac-portal-transfer-duke-cas/'
p485
(lp486
sS'gs://motrpac-portal-user-hitz/'
p487
(lp488
sS'gs://motrpac-portal-pilot/'
p489
(lp490
sS'gs://motrpac-portal-user-davidama/'
p491
(lp492
sS'gs://motrpac-portal-user-annashch/'
p493
(lp494
sS'gs://motrpac-portal-user-euan/'
p495
(lp496
sS'gs://motrpac-portal-transfer-emory/'
p497
(lp498
sS'gs://motrpac-portal-transfer-colorado/'
p499
(lp500
s.